; Function Attrs: mustprogress uwtable
define hidden void @_ZN19OpenColorIO_v2_5dev12MatrixOpData11MatrixArrayC2Ev(ptr noundef nonnull align 8 dereferenceable(48) initializes((0, 48)) %0) unnamed_addr #3 align 2 personality ptr @__gxx_personality_v0 {
  %2 = getelementptr inbounds nuw i8, ptr %0, i64 8
  %3 = getelementptr inbounds nuw i8, ptr %0, i64 24
  tail call void @llvm.memset.p0.i64(ptr noundef nonnull align 8 dereferenceable(24) %3, i8 0, i64 24, i1 false)
  store ptr getelementptr inbounds nuw inrange(-16, 72) (i8, ptr @_ZTVN19OpenColorIO_v2_5dev12MatrixOpData11MatrixArrayE, i64 16), ptr %0, align 8, !tbaa !15
  store i64 4, ptr %2, align 8, !tbaa !17
  %4 = getelementptr inbounds nuw i8, ptr %0, i64 16
  store i64 4, ptr %4, align 8, !tbaa !24
  %5 = getelementptr inbounds nuw i8, ptr %0, i64 32
  invoke void @_ZNSt6vectorIdSaIdEE17_M_default_appendEm(ptr noundef nonnull align 8 dereferenceable(24) %3, i64 noundef 16)
          to label %_ZN19OpenColorIO_v2_5dev6ArrayTIdE6resizeEmm.exit unwind label %25

_ZN19OpenColorIO_v2_5dev6ArrayTIdE6resizeEmm.exit: ; preds = %1
  %.pre = load ptr, ptr %0, align 8, !tbaa !15
  %6 = getelementptr inbounds nuw i8, ptr %.pre, i64 32
  %7 = load ptr, ptr %6, align 8
  %8 = invoke noundef i64 %7(ptr noundef nonnull align 8 dereferenceable(48) %0)
          to label %.noexc3 unwind label %25

.noexc3:                                          ; preds = %_ZN19OpenColorIO_v2_5dev6ArrayTIdE6resizeEmm.exit
  %9 = load ptr, ptr %3, align 8, !tbaa !9
  %10 = load ptr, ptr %5, align 8, !tbaa !25
  %11 = ptrtoint ptr %10 to i64
  %12 = ptrtoint ptr %9 to i64
  %13 = sub i64 %11, %12
  tail call void @llvm.memset.p0.i64(ptr nonnull align 8 %9, i8 0, i64 %13, i1 false)
  %.not.i = icmp eq i64 %8, 0
  br i1 %.not.i, label %_ZN19OpenColorIO_v2_5dev12MatrixOpData11MatrixArray4fillEv.exit, label %.preheader.i

.preheader.i:                                     ; preds = %.noexc3, %18
  %.01417.i = phi i64 [ %19, %18 ], [ 0, %.noexc3 ]
  %14 = mul i64 %.01417.i, %8
  %15 = load ptr, ptr %3, align 8
  %16 = getelementptr double, ptr %15, i64 %14
  %17 = getelementptr double, ptr %16, i64 %.01417.i
  br label %20

18:                                               ; preds = %23
  %19 = add nuw i64 %.01417.i, 1
  %exitcond18.not.i = icmp eq i64 %19, %8
  br i1 %exitcond18.not.i, label %_ZN19OpenColorIO_v2_5dev12MatrixOpData11MatrixArray4fillEv.exit, label %.preheader.i, !llvm.loop !26

20:                                               ; preds = %23, %.preheader.i
  %.016.i = phi i64 [ 0, %.preheader.i ], [ %24, %23 ]
  %21 = icmp eq i64 %.01417.i, %.016.i
  br i1 %21, label %22, label %23

22:                                               ; preds = %20
  store double 1.000000e+00, ptr %17, align 8, !tbaa !7
  br label %23

23:                                               ; preds = %22, %20
  %24 = add nuw i64 %.016.i, 1
  %exitcond.not.i = icmp eq i64 %24, %8
  br i1 %exitcond.not.i, label %18, label %20, !llvm.loop !27

_ZN19OpenColorIO_v2_5dev12MatrixOpData11MatrixArray4fillEv.exit: ; preds = %18, %.noexc3
  ret void

25:                                               ; preds = %_ZN19OpenColorIO_v2_5dev6ArrayTIdE6resizeEmm.exit, %1
  %26 = landingpad { ptr, i32 }
          cleanup
  store ptr getelementptr inbounds nuw inrange(-16, 72) (i8, ptr @_ZTVN19OpenColorIO_v2_5dev6ArrayTIdEE, i64 16), ptr %0, align 8, !tbaa !15
  %27 = load ptr, ptr %3, align 8, !tbaa !9
  %.not.i.i.i.i = icmp eq ptr %27, null
  br i1 %.not.i.i.i.i, label %_ZN19OpenColorIO_v2_5dev6ArrayTIdED2Ev.exit, label %28

28:                                               ; preds = %25
  %29 = getelementptr inbounds nuw i8, ptr %0, i64 40
  %30 = load ptr, ptr %29, align 8, !tbaa !28
  %31 = ptrtoint ptr %30 to i64
  %32 = ptrtoint ptr %27 to i64
  %33 = sub i64 %31, %32
  tail call void @_ZdlPvm(ptr noundef nonnull %27, i64 noundef %33) #36
  br label %_ZN19OpenColorIO_v2_5dev6ArrayTIdED2Ev.exit

_ZN19OpenColorIO_v2_5dev6ArrayTIdED2Ev.exit:      ; preds = %25, %28
  resume { ptr, i32 } %26
}